target datalayout = "e-m:e-p270:32:32-p271:32:32-p272:64:64-i64:64-i128:128-f80:128-n8:16:32:64-S128"
target triple = "x86_64-pc-linux-gnu"

%class.LogTagSet = type { ptr, i64, [5 x i32], [4 x i8], %class.LogOutputList, %class.LogDecorators, ptr }
%class.LogOutputList = type <{ [6 x ptr], i32, [4 x i8] }>
%class.LogDecorators = type { i32 }
%class.elapsedTimer = type <{ i64, i64, i8, [7 x i8] }>
%class.TraceTime = type { i8, i8, [6 x i8], %class.elapsedTimer, ptr, ptr, ptr }

@.str.6 = private unnamed_addr constant [19 x i8] c"IterateThroughHeap\00", align 1
@_ZN16LogTagSetMappingILN6LogTag4typeE69ELS1_98ELS1_0ELS1_0ELS1_0ELS1_0EE7_tagsetE = linkonce_odr hidden global %class.LogTagSet zeroinitializer, comdat, align 8
@_ZN15java_lang_Class13_klass_offsetE = external global i32, align 4

; Function Attrs: mustprogress nounwind uwtable
define linkonce_odr hidden noundef zeroext i1 @_ZNK13LogOutputList8is_levelEN8LogLevel4typeE(ptr noundef nonnull align 8 dereferenceable(52) %0, i32 noundef %1) #1 comdat align 2 {
  %3 = alloca ptr, align 8
  %4 = alloca i32, align 4
  store ptr %0, ptr %3, align 8
  store i32 %1, ptr %4, align 4
  %5 = load ptr, ptr %3, align 8
  %6 = getelementptr inbounds %class.LogOutputList, ptr %5, i32 0, i32 0
  %7 = load i32, ptr %4, align 4
  %8 = zext i32 %7 to i64
  %9 = getelementptr inbounds [6 x ptr], ptr %6, i64 0, i64 %8
  %10 = load volatile ptr, ptr %9, align 8
  %11 = icmp ne ptr %10, null
  ret i1 %11
}

; Function Attrs: mustprogress nounwind uwtable
define linkonce_odr hidden noundef zeroext i1 @_ZNK9LogTagSet8is_levelEN8LogLevel4typeE(ptr noundef nonnull align 8 dereferenceable(112) %0, i32 noundef %1) #1 comdat align 2 {
  %3 = alloca ptr, align 8
  %4 = alloca i32, align 4
  store ptr %0, ptr %3, align 8
  store i32 %1, ptr %4, align 4
  %5 = load ptr, ptr %3, align 8
  %6 = getelementptr inbounds %class.LogTagSet, ptr %5, i32 0, i32 4
  %7 = load i32, ptr %4, align 4
  %8 = call noundef zeroext i1 @_ZNK13LogOutputList8is_levelEN8LogLevel4typeE(ptr noundef nonnull align 8 dereferenceable(52) %6, i32 noundef %7)
  ret i1 %8
}

; Function Attrs: mustprogress nounwind uwtable
define linkonce_odr hidden noundef nonnull align 8 dereferenceable(112) ptr @_ZN16LogTagSetMappingILN6LogTag4typeE69ELS1_98ELS1_0ELS1_0ELS1_0ELS1_0EE6tagsetEv() #1 comdat align 2 {
  ret ptr @_ZN16LogTagSetMappingILN6LogTag4typeE69ELS1_98ELS1_0ELS1_0ELS1_0ELS1_0EE7_tagsetE
}

; Function Attrs: mustprogress nounwind uwtable
define linkonce_odr hidden noundef zeroext i1 @_ZN7LogImplILN6LogTag4typeE69ELS1_98ELS1_0ELS1_0ELS1_0ELS1_0EE8is_levelEN8LogLevel4typeE(i32 noundef %0) #1 comdat align 2 {
  %2 = alloca i32, align 4
  store i32 %0, ptr %2, align 4
  %3 = call noundef nonnull align 8 dereferenceable(112) ptr @_ZN16LogTagSetMappingILN6LogTag4typeE69ELS1_98ELS1_0ELS1_0ELS1_0ELS1_0EE6tagsetEv()
  %4 = load i32, ptr %2, align 4
  %5 = call noundef zeroext i1 @_ZNK9LogTagSet8is_levelEN8LogLevel4typeE(ptr noundef nonnull align 8 dereferenceable(112) %3, i32 noundef %4)
  ret i1 %5
}

; Function Attrs: mustprogress nounwind uwtable
define linkonce_odr hidden noundef ptr @_ZN15java_lang_Class8as_KlassEP7oopDesc(ptr noundef %0) #1 comdat align 2 {
  %2 = alloca ptr, align 8
  %3 = alloca ptr, align 8
  store ptr %0, ptr %2, align 8
  %4 = load ptr, ptr %2, align 8
  %5 = load i32, ptr @_ZN15java_lang_Class13_klass_offsetE, align 4
  %6 = call noundef ptr @_ZNK7oopDesc14metadata_fieldEi(ptr noundef nonnull align 8 dereferenceable(16) %4, i32 noundef %5)
  store ptr %6, ptr %3, align 8
  %7 = load ptr, ptr %3, align 8
  ret ptr %7
}

; Function Attrs: mustprogress nounwind uwtable
define linkonce_odr hidden noundef zeroext i1 @_ZN15java_lang_Class12is_primitiveEP7oopDesc(ptr noundef %0) #1 comdat align 2 {
  %2 = alloca ptr, align 8
  %3 = alloca i8, align 1
  store ptr %0, ptr %2, align 8
  %4 = load ptr, ptr %2, align 8
  %5 = load i32, ptr @_ZN15java_lang_Class13_klass_offsetE, align 4
  %6 = call noundef ptr @_ZNK7oopDesc14metadata_fieldEi(ptr noundef nonnull align 8 dereferenceable(16) %4, i32 noundef %5)
  %7 = icmp eq ptr %6, null
  %8 = zext i1 %7 to i8
  store i8 %8, ptr %3, align 1
  %9 = load i8, ptr %3, align 1
  %10 = trunc i8 %9 to i1
  ret i1 %10
}

; Function Attrs: mustprogress nounwind uwtable
define hidden noundef i32 @_ZN8JvmtiEnv18IterateThroughHeapEiP7_jclassPK18jvmtiHeapCallbacksPKv(ptr noundef nonnull align 8 dereferenceable(460) %0, i32 noundef %1, ptr noundef %2, ptr noundef %3, ptr noundef %4) #1 align 2 {
  %6 = alloca i32, align 4
  %7 = alloca ptr, align 8
  %8 = alloca i32, align 4
  %9 = alloca ptr, align 8
  %10 = alloca ptr, align 8
  %11 = alloca ptr, align 8
  %12 = alloca ptr, align 8
  %13 = alloca ptr, align 8
  %14 = alloca %class.TraceTime, align 8
  store ptr %0, ptr %7, align 8
  store i32 %1, ptr %8, align 4
  store ptr %2, ptr %9, align 8
  store ptr %3, ptr %10, align 8
  store ptr %4, ptr %11, align 8
  %15 = load ptr, ptr %7, align 8
  store ptr null, ptr %12, align 8
  %16 = load ptr, ptr %9, align 8
  %17 = icmp ne ptr %16, null
  br i1 %17, label %18, label %35

18:                                               ; preds = %5
  %19 = load ptr, ptr %9, align 8
  %20 = call noundef ptr @_ZN10JNIHandles22resolve_external_guardEP8_jobject(ptr noundef %19)
  store ptr %20, ptr %13, align 8
  %21 = load ptr, ptr %13, align 8
  %22 = icmp eq ptr %21, null
  br i1 %22, label %23, label %24

23:                                               ; preds = %18
  store i32 21, ptr %6, align 4
  br label %43

24:                                               ; preds = %18
  %25 = load ptr, ptr %13, align 8
  %26 = call noundef zeroext i1 @_ZN15java_lang_Class12is_primitiveEP7oopDesc(ptr noundef %25)
  br i1 %26, label %27, label %28

27:                                               ; preds = %24
  store i32 0, ptr %6, align 4
  br label %43

28:                                               ; preds = %24
  %29 = load ptr, ptr %13, align 8
  %30 = call noundef ptr @_ZN15java_lang_Class8as_KlassEP7oopDesc(ptr noundef %29)
  store ptr %30, ptr %12, align 8
  %31 = load ptr, ptr %12, align 8
  %32 = icmp eq ptr %31, null
  br i1 %32, label %33, label %34

33:                                               ; preds = %28
  store i32 21, ptr %6, align 4
  br label %43

34:                                               ; preds = %28
  br label %35

35:                                               ; preds = %34, %5
  %36 = call noundef zeroext i1 @_ZN7LogImplILN6LogTag4typeE69ELS1_98ELS1_0ELS1_0ELS1_0ELS1_0EE8is_levelEN8LogLevel4typeE(i32 noundef 2)
  %37 = select i1 %36, ptr @_ZN7LogImplILN6LogTag4typeE69ELS1_98ELS1_0ELS1_0ELS1_0ELS1_0EE5writeILN8LogLevel4typeE2EEEvPKcz, ptr null
  call void @_ZN9TraceTimeC1EPKcPFvS1_zE(ptr noundef nonnull align 8 dereferenceable(56) %14, ptr noundef @.str.6, ptr noundef %37)
  %38 = call noundef ptr @_ZN11JvmtiTagMap11tag_map_forEP8JvmtiEnv(ptr noundef %15)
  %39 = load i32, ptr %8, align 4
  %40 = load ptr, ptr %12, align 8
  %41 = load ptr, ptr %10, align 8
  %42 = load ptr, ptr %11, align 8
  call void @_ZN11JvmtiTagMap20iterate_through_heapEiP5KlassPK18jvmtiHeapCallbacksPKv(ptr noundef nonnull align 8 dereferenceable(122) %38, i32 noundef %39, ptr noundef %40, ptr noundef %41, ptr noundef %42)
  store i32 0, ptr %6, align 4
  call void @_ZN9TraceTimeD1Ev(ptr noundef nonnull align 8 dereferenceable(56) %14) #9
  br label %43

43:                                               ; preds = %35, %33, %27, %23
  %44 = load i32, ptr %6, align 4
  ret i32 %44
}