; Function Attrs: mustprogress nounwind uwtable
define hidden noundef range(i32 0, 22) i32 @_ZN8JvmtiEnv18IterateThroughHeapEiP7_jclassPK18jvmtiHeapCallbacksPKv(ptr noundef nonnull align 8 dereferenceable(460) %0, i32 noundef %1, ptr noundef %2, ptr noundef %3, ptr noundef %4) local_unnamed_addr #0 align 2 {
  %6 = alloca %class.TraceTime, align 8
  %.not = icmp eq ptr %2, null
  br i1 %.not, label %18, label %7

7:                                                ; preds = %5
  %8 = tail call noundef ptr @_ZN10JNIHandles22resolve_external_guardEP8_jobject(ptr noundef nonnull %2) #17
  %9 = icmp eq ptr %8, null
  br i1 %9, label %22, label %10

10:                                               ; preds = %7
  %11 = load i32, ptr @_ZN15java_lang_Class13_klass_offsetE, align 4
  %12 = tail call noundef ptr @_ZNK7oopDesc14metadata_fieldEi(ptr noundef nonnull align 8 dereferenceable(16) %8, i32 noundef %11) #17
  %13 = icmp eq ptr %12, null
  br i1 %13, label %22, label %14

14:                                               ; preds = %10
  %15 = load i32, ptr @_ZN15java_lang_Class13_klass_offsetE, align 4
  %16 = tail call noundef ptr @_ZNK7oopDesc14metadata_fieldEi(ptr noundef nonnull align 8 dereferenceable(16) %8, i32 noundef %15) #17
  %17 = icmp eq ptr %16, null
  br i1 %17, label %22, label %18

18:                                               ; preds = %14, %5
  %.011 = phi ptr [ %16, %14 ], [ null, %5 ]
  %19 = load volatile ptr, ptr getelementptr inbounds (i8, ptr @_ZN16LogTagSetMappingILN6LogTag4typeE69ELS1_98ELS1_0ELS1_0ELS1_0ELS1_0EE7_tagsetE, i64 56), align 8
  %.not15 = icmp eq ptr %19, null
  %20 = select i1 %.not15, ptr null, ptr @_ZN7LogImplILN6LogTag4typeE69ELS1_98ELS1_0ELS1_0ELS1_0ELS1_0EE5writeILN8LogLevel4typeE2EEEvPKcz
  call void @_ZN9TraceTimeC1EPKcPFvS1_zE(ptr noundef nonnull align 8 dereferenceable(56) %6, ptr noundef nonnull @.str.6, ptr noundef %20) #17
  %21 = call noundef ptr @_ZN11JvmtiTagMap11tag_map_forEP8JvmtiEnv(ptr noundef nonnull %0) #17
  call void @_ZN11JvmtiTagMap20iterate_through_heapEiP5KlassPK18jvmtiHeapCallbacksPKv(ptr noundef nonnull align 8 dereferenceable(122) %21, i32 noundef %1, ptr noundef %.011, ptr noundef %3, ptr noundef %4) #17
  call void @_ZN9TraceTimeD1Ev(ptr noundef nonnull align 8 dereferenceable(56) %6) #17
  br label %22

22:                                               ; preds = %14, %10, %7, %18
  %.0 = phi i32 [ 0, %18 ], [ 21, %7 ], [ 0, %10 ], [ 21, %14 ]
  ret i32 %.0
}